; Function Attrs: nounwind uwtable
define noundef nonnull ptr @l_Std_DHashMap_Internal_AssocList_contains___at_Lean_IR_Borrow_OwnedSet_insert___spec__1___boxed(ptr noundef %0, ptr noundef %1) local_unnamed_addr #1 {
  %3 = getelementptr inbounds nuw i8, ptr %0, i64 8
  %4 = getelementptr inbounds nuw i8, ptr %0, i64 16
  br label %.critedge.i

.critedge.i:                                      ; preds = %.critedge.i.backedge, %2
  %.011.i = phi ptr [ %1, %2 ], [ %18, %.critedge.i.backedge ]
  %5 = ptrtoint ptr %.011.i to i64
  %6 = and i64 %5, 1
  %.not.i.i = icmp eq i64 %6, 0
  br i1 %.not.i.i, label %10, label %7

7:                                                ; preds = %.critedge.i
  %8 = lshr i64 %5, 1
  %9 = trunc i64 %8 to i32
  br label %lean_obj_tag.exit.i

10:                                               ; preds = %.critedge.i
  %11 = getelementptr i8, ptr %.011.i, i64 4
  %.val.i.i = load i32, ptr %11, align 4
  %12 = lshr i32 %.val.i.i, 24
  br label %lean_obj_tag.exit.i

lean_obj_tag.exit.i:                              ; preds = %10, %7
  %.0.i.i = phi i32 [ %9, %7 ], [ %12, %10 ]
  %13 = icmp eq i32 %.0.i.i, 0
  br i1 %13, label %l_Std_DHashMap_Internal_AssocList_contains___at_Lean_IR_Borrow_OwnedSet_insert___spec__1.exit, label %14

14:                                               ; preds = %lean_obj_tag.exit.i
  %15 = getelementptr inbounds nuw i8, ptr %.011.i, i64 8
  %16 = load ptr, ptr %15, align 8, !tbaa !9
  %17 = getelementptr inbounds nuw i8, ptr %.011.i, i64 24
  %18 = load ptr, ptr %17, align 8, !tbaa !9
  %19 = getelementptr inbounds nuw i8, ptr %16, i64 8
  %20 = load ptr, ptr %19, align 8, !tbaa !9
  %21 = getelementptr inbounds nuw i8, ptr %16, i64 16
  %22 = load ptr, ptr %21, align 8, !tbaa !9
  %23 = load ptr, ptr %3, align 8, !tbaa !9
  %24 = load ptr, ptr %4, align 8, !tbaa !9
  %25 = tail call zeroext i8 @lean_name_eq(ptr noundef %20, ptr noundef %23) #6
  %26 = icmp eq i8 %25, 0
  br i1 %26, label %.critedge.i.backedge, label %27

27:                                               ; preds = %14
  %28 = ptrtoint ptr %22 to i64
  %29 = and i64 %28, 1
  %30 = icmp ne i64 %29, 0
  %31 = ptrtoint ptr %24 to i64
  %32 = and i64 %31, 1
  %33 = icmp ne i64 %32, 0
  %or.cond.i.i = select i1 %30, i1 %33, i1 false
  br i1 %or.cond.i.i, label %34, label %lean_nat_eq.exit.i.i, !prof !12

34:                                               ; preds = %27
  %35 = icmp eq ptr %22, %24
  br i1 %35, label %l_Std_DHashMap_Internal_AssocList_contains___at_Lean_IR_Borrow_OwnedSet_insert___spec__1.exit, label %.critedge.i.backedge

lean_nat_eq.exit.i.i:                             ; preds = %27
  %36 = tail call zeroext i1 @lean_nat_big_eq(ptr noundef %22, ptr noundef %24) #6
  br i1 %36, label %l_Std_DHashMap_Internal_AssocList_contains___at_Lean_IR_Borrow_OwnedSet_insert___spec__1.exit, label %.critedge.i.backedge

.critedge.i.backedge:                             ; preds = %lean_nat_eq.exit.i.i, %34, %14
  br label %.critedge.i

l_Std_DHashMap_Internal_AssocList_contains___at_Lean_IR_Borrow_OwnedSet_insert___spec__1.exit: ; preds = %lean_obj_tag.exit.i, %34, %lean_nat_eq.exit.i.i
  %.1.i = phi i64 [ 3, %lean_nat_eq.exit.i.i ], [ 1, %lean_obj_tag.exit.i ], [ 3, %34 ]
  %37 = ptrtoint ptr %1 to i64
  %38 = and i64 %37, 1
  %.not = icmp eq i64 %38, 0
  br i1 %.not, label %39, label %lean_dec.exit5

39:                                               ; preds = %l_Std_DHashMap_Internal_AssocList_contains___at_Lean_IR_Borrow_OwnedSet_insert___spec__1.exit
  %40 = load i32, ptr %1, align 4, !tbaa !4
  %41 = icmp sgt i32 %40, 1
  br i1 %41, label %42, label %44, !prof !11

42:                                               ; preds = %39
  %43 = add nsw i32 %40, -1
  store i32 %43, ptr %1, align 4, !tbaa !4
  br label %lean_dec.exit5

44:                                               ; preds = %39
  %.not.i = icmp eq i32 %40, 0
  br i1 %.not.i, label %lean_dec.exit5, label %45

45:                                               ; preds = %44
  tail call void @lean_dec_ref_cold(ptr noundef nonnull %1) #6
  br label %lean_dec.exit5

lean_dec.exit5:                                   ; preds = %45, %44, %42, %l_Std_DHashMap_Internal_AssocList_contains___at_Lean_IR_Borrow_OwnedSet_insert___spec__1.exit
  %46 = ptrtoint ptr %0 to i64
  %47 = and i64 %46, 1
  %.not8 = icmp eq i64 %47, 0
  br i1 %.not8, label %48, label %lean_dec.exit

48:                                               ; preds = %lean_dec.exit5
  %49 = load i32, ptr %0, align 4, !tbaa !4
  %50 = icmp sgt i32 %49, 1
  br i1 %50, label %51, label %53, !prof !11

51:                                               ; preds = %48
  %52 = add nsw i32 %49, -1
  store i32 %52, ptr %0, align 4, !tbaa !4
  br label %lean_dec.exit

53:                                               ; preds = %48
  %.not.i6 = icmp eq i32 %49, 0
  br i1 %.not.i6, label %lean_dec.exit, label %54

54:                                               ; preds = %53
  tail call void @lean_dec_ref_cold(ptr noundef nonnull %0) #6
  br label %lean_dec.exit

lean_dec.exit:                                    ; preds = %54, %53, %51, %lean_dec.exit5
  %55 = inttoptr i64 %.1.i to ptr
  ret ptr %55
}